; Function Attrs: mustprogress uwtable
define hidden noundef nonnull align 8 dereferenceable(1080) ptr @_ZN7datalog11udoc_plugin2dmERKNS_18relation_signatureE(ptr noundef nonnull align 8 dereferenceable(129) %0, ptr noundef nonnull readonly align 8 captures(none) dereferenceable(8) %1) local_unnamed_addr #3 align 2 {
  br label %3

3:                                                ; preds = %11, %2
  %indvars.iv.i = phi i64 [ %indvars.iv.next.i, %11 ], [ 0, %2 ]
  %.07.i = phi i32 [ %15, %11 ], [ 0, %2 ]
  %4 = load ptr, ptr %1, align 8, !tbaa !10
  %5 = icmp eq ptr %4, null
  br i1 %5, label %_ZNK6vectorIP4sortLb0EjE4sizeEv.exit.i, label %6

6:                                                ; preds = %3
  %7 = getelementptr inbounds i8, ptr %4, i64 -4
  %8 = load i32, ptr %7, align 4, !tbaa !14
  %9 = zext i32 %8 to i64
  br label %_ZNK6vectorIP4sortLb0EjE4sizeEv.exit.i

_ZNK6vectorIP4sortLb0EjE4sizeEv.exit.i:           ; preds = %6, %3
  %.0.i.i = phi i64 [ %9, %6 ], [ 0, %3 ]
  %10 = icmp samesign ult i64 %indvars.iv.i, %.0.i.i
  br i1 %10, label %11, label %_ZN7datalog11udoc_plugin18num_signature_bitsERKNS_18relation_signatureE.exit

11:                                               ; preds = %_ZNK6vectorIP4sortLb0EjE4sizeEv.exit.i
  %12 = getelementptr inbounds nuw ptr, ptr %4, i64 %indvars.iv.i
  %13 = load ptr, ptr %12, align 8, !tbaa !26
  %14 = tail call noundef i32 @_ZNK7datalog11udoc_plugin13num_sort_bitsEP4sort(ptr noundef nonnull align 8 dereferenceable(129) %0, ptr noundef %13)
  %15 = add i32 %14, %.07.i
  %indvars.iv.next.i = add nuw nsw i64 %indvars.iv.i, 1
  br label %3, !llvm.loop !28

_ZN7datalog11udoc_plugin18num_signature_bitsERKNS_18relation_signatureE.exit: ; preds = %_ZNK6vectorIP4sortLb0EjE4sizeEv.exit.i
  %16 = tail call noundef nonnull align 8 dereferenceable(1080) ptr @_ZN7datalog11udoc_plugin2dmEj(ptr noundef nonnull align 8 dereferenceable(129) %0, i32 noundef %.07.i)
  ret ptr %16
}